
main.o:     file format elf32-littlearm


Disassembly of section .text:

00000000 <main>:
   0:	b590      	push	{r4, r7, lr}
   2:	b083      	sub	sp, #12
   4:	af00      	add	r7, sp, #0
   6:	230c      	movs	r3, #12
   8:	603b      	str	r3, [r7, #0]
   a:	232d      	movs	r3, #45	; 0x2d
   c:	001a      	movs	r2, r3
   e:	0013      	movs	r3, r2
  10:	009b      	lsls	r3, r3, #2
  12:	189b      	adds	r3, r3, r2
  14:	005b      	lsls	r3, r3, #1
  16:	0018      	movs	r0, r3
  18:	f7ff fffe 	bl	0 <malloc>
  1c:	0003      	movs	r3, r0
  1e:	607b      	str	r3, [r7, #4]
  20:	687b      	ldr	r3, [r7, #4]
  22:	2b00      	cmp	r3, #0
  24:	d102      	bne.n	2c <main+0x2c>
  26:	2301      	movs	r3, #1
  28:	425b      	negs	r3, r3
  2a:	e00f      	b.n	4c <main+0x4c>
  2c:	2400      	movs	r4, #0
  2e:	e009      	b.n	44 <main+0x44>
  30:	687b      	ldr	r3, [r7, #4]
  32:	0018      	movs	r0, r3
  34:	f7ff fffe 	bl	0 <func>
  38:	0002      	movs	r2, r0
  3a:	4b06      	ldr	r3, [pc, #24]	; (54 <main+0x54>)
  3c:	601a      	str	r2, [r3, #0]
  3e:	683b      	ldr	r3, [r7, #0]
  40:	3301      	adds	r3, #1
  42:	603b      	str	r3, [r7, #0]
  44:	232d      	movs	r3, #45	; 0x2d
  46:	429c      	cmp	r4, r3
  48:	dbf2      	blt.n	30 <main+0x30>
  4a:	2300      	movs	r3, #0
  4c:	0018      	movs	r0, r3
  4e:	46bd      	mov	sp, r7
  50:	b003      	add	sp, #12
  52:	bd90      	pop	{r4, r7, pc}
  54:	00000000 	andeq	r0, r0, r0
